; ModuleID = '49/915.c'
source_filename = "49/915.c"
target datalayout = "e-m:e-p270:32:32-p271:32:32-p272:64:64-i64:64-f80:128-n8:16:32:64-S128"
target triple = "x86_64-pc-linux-gnu"

@.str = private unnamed_addr constant [3 x i8] c"%s\00", align 1
@.str.1 = private unnamed_addr constant [3 x i8] c"%c\00", align 1
@.str.2 = private unnamed_addr constant [2 x i8] c"\0A\00", align 1

; Function Attrs: noinline nounwind uwtable
define dso_local i32 @main() #0 {
  %1 = alloca i32, align 4
  %2 = alloca i32, align 4
  %3 = alloca i32, align 4
  %4 = alloca i32, align 4
  %5 = alloca i32, align 4
  %6 = alloca i32, align 4
  %7 = alloca i32, align 4
  %8 = alloca i32, align 4
  %9 = alloca [502 x i8], align 16
  %10 = alloca i8*, align 8
  store i32 0, i32* %1, align 4
  store i32 0, i32* %6, align 4
  %11 = getelementptr inbounds [502 x i8], [502 x i8]* %9, i64 0, i64 0
  store i8* %11, i8** %10, align 8
  %12 = getelementptr inbounds [502 x i8], [502 x i8]* %9, i64 0, i64 0
  %13 = call i32 (i8*, ...) @__isoc99_scanf(i8* getelementptr inbounds ([3 x i8], [3 x i8]* @.str, i64 0, i64 0), i8* %12)
  %14 = getelementptr inbounds [502 x i8], [502 x i8]* %9, i64 0, i64 0
  %15 = call i64 @strlen(i8* %14) #3
  %16 = trunc i64 %15 to i32
  store i32 %16, i32* %3, align 4
  store i32 2, i32* %4, align 4
  br label %17

17:                                               ; preds = %88, %0
  %18 = load i32, i32* %4, align 4
  %19 = load i32, i32* %3, align 4
  %20 = icmp sle i32 %18, %19
  br i1 %20, label %21, label %91

21:                                               ; preds = %17
  store i32 0, i32* %7, align 4
  br label %22

22:                                               ; preds = %83, %21
  %23 = load i32, i32* %7, align 4
  %24 = load i32, i32* %3, align 4
  %25 = load i32, i32* %4, align 4
  %26 = sub nsw i32 %24, %25
  %27 = icmp sle i32 %23, %26
  br i1 %27, label %28, label %86

28:                                               ; preds = %22
  store i32 0, i32* %5, align 4
  br label %29

29:                                               ; preds = %55, %28
  %30 = load i32, i32* %5, align 4
  %31 = load i32, i32* %4, align 4
  %32 = sub nsw i32 %31, 1
  %33 = icmp sle i32 %30, %32
  br i1 %33, label %34, label %58

34:                                               ; preds = %29
  %35 = load i8*, i8** %10, align 8
  %36 = load i32, i32* %5, align 4
  %37 = sext i32 %36 to i64
  %38 = getelementptr inbounds i8, i8* %35, i64 %37
  %39 = load i8, i8* %38, align 1
  %40 = sext i8 %39 to i32
  %41 = load i8*, i8** %10, align 8
  %42 = load i32, i32* %4, align 4
  %43 = sext i32 %42 to i64
  %44 = getelementptr inbounds i8, i8* %41, i64 %43
  %45 = load i32, i32* %5, align 4
  %46 = sext i32 %45 to i64
  %47 = sub i64 0, %46
  %48 = getelementptr inbounds i8, i8* %44, i64 %47
  %49 = getelementptr inbounds i8, i8* %48, i64 -1
  %50 = load i8, i8* %49, align 1
  %51 = sext i8 %50 to i32
  %52 = icmp ne i32 %40, %51
  br i1 %52, label %53, label %54

53:                                               ; preds = %34
  store i32 1, i32* %6, align 4
  br label %58

54:                                               ; preds = %34
  br label %55

55:                                               ; preds = %54
  %56 = load i32, i32* %5, align 4
  %57 = add nsw i32 %56, 1
  store i32 %57, i32* %5, align 4
  br label %29

58:                                               ; preds = %53, %29
  %59 = load i32, i32* %6, align 4
  %60 = icmp eq i32 %59, 0
  br i1 %60, label %61, label %80

61:                                               ; preds = %58
  store i32 0, i32* %8, align 4
  br label %62

62:                                               ; preds = %75, %61
  %63 = load i32, i32* %8, align 4
  %64 = load i32, i32* %4, align 4
  %65 = sub nsw i32 %64, 1
  %66 = icmp sle i32 %63, %65
  br i1 %66, label %67, label %78

67:                                               ; preds = %62
  %68 = load i8*, i8** %10, align 8
  %69 = load i32, i32* %8, align 4
  %70 = sext i32 %69 to i64
  %71 = getelementptr inbounds i8, i8* %68, i64 %70
  %72 = load i8, i8* %71, align 1
  %73 = sext i8 %72 to i32
  %74 = call i32 (i8*, ...) @printf(i8* getelementptr inbounds ([3 x i8], [3 x i8]* @.str.1, i64 0, i64 0), i32 %73)
  br label %75

75:                                               ; preds = %67
  %76 = load i32, i32* %8, align 4
  %77 = add nsw i32 %76, 1
  store i32 %77, i32* %8, align 4
  br label %62

78:                                               ; preds = %62
  %79 = call i32 (i8*, ...) @printf(i8* getelementptr inbounds ([2 x i8], [2 x i8]* @.str.2, i64 0, i64 0))
  br label %80

80:                                               ; preds = %78, %58
  store i32 0, i32* %6, align 4
  %81 = load i8*, i8** %10, align 8
  %82 = getelementptr inbounds i8, i8* %81, i64 1
  store i8* %82, i8** %10, align 8
  br label %83

83:                                               ; preds = %80
  %84 = load i32, i32* %7, align 4
  %85 = add nsw i32 %84, 1
  store i32 %85, i32* %7, align 4
  br label %22

86:                                               ; preds = %22
  %87 = getelementptr inbounds [502 x i8], [502 x i8]* %9, i64 0, i64 0
  store i8* %87, i8** %10, align 8
  br label %88

88:                                               ; preds = %86
  %89 = load i32, i32* %4, align 4
  %90 = add nsw i32 %89, 1
  store i32 %90, i32* %4, align 4
  br label %17

91:                                               ; preds = %17
  ret i32 0
}

declare dso_local i32 @__isoc99_scanf(i8*, ...) #1

; Function Attrs: nounwind readonly
declare dso_local i64 @strlen(i8*) #2

declare dso_local i32 @printf(i8*, ...) #1


!llvm.module.flags = !{!0}
!llvm.ident = !{!1}

!0 = !{i32 1, !"wchar_size", i32 4}
!1 = !{!"clang version 10.0.0-4ubuntu1 "}
